#include <math.h>
#include <stdio.h>
#include <stdlib.h>
#include <string.h>
#include <iostream>
using namespace std;

int main()
{
 char a[101];
 cin.getline(a,101);
 for(int i = 0; i < strlen(a); ++i)
 {
  if(a[i] != ' ')
  {
   if(i == strlen(a)) cout << a[i];
   else
   if(a[i+1] == ' ')
   cout << a[i] << " ";
   else 
   cout << a[i];
  }
 }
 //while(1);
 return 0;
}
